; Function Attrs: nofree norecurse nosync nounwind memory(write, argmem: readwrite, inaccessiblemem: none) uwtable
define void @Psr_ManRemapGate(ptr noundef readonly captures(none) %0) local_unnamed_addr #5 {
  %2 = getelementptr i8, ptr %0, i64 4
  %.val10 = load i32, ptr %2, align 4, !tbaa !3
  %3 = icmp sgt i32 %.val10, 0
  br i1 %3, label %.lr.ph, label %.critedge

.lr.ph:                                           ; preds = %1
  %4 = getelementptr i8, ptr %0, i64 8
  %.val8 = load ptr, ptr %4, align 8, !tbaa !10
  br label %5

5:                                                ; preds = %.lr.ph, %5
  %indvars.iv = phi i64 [ 0, %.lr.ph ], [ %indvars.iv.next, %5 ]
  %6 = getelementptr inbounds nuw i32, ptr %.val8, i64 %indvars.iv
  %7 = lshr exact i64 %indvars.iv, 1
  %8 = trunc i64 %7 to i32
  %9 = add i32 %8, 1
  store i32 %9, ptr %6, align 4, !tbaa !11
  %indvars.iv.next = add nuw nsw i64 %indvars.iv, 2
  %.val = load i32, ptr %2, align 4, !tbaa !3
  %10 = sext i32 %.val to i64
  %11 = icmp slt i64 %indvars.iv.next, %10
  br i1 %11, label %5, label %.critedge, !llvm.loop !24

.critedge:                                        ; preds = %5, %1
  ret void
}